target datalayout = "e-m:e-p270:32:32-p271:32:32-p272:64:64-i64:64-i128:128-f80:128-n8:16:32:64-S128"
target triple = "x86_64-pc-linux-gnu"

%struct.SBRDSPContext = type { ptr, ptr, ptr, ptr, ptr, ptr, ptr, ptr, ptr, ptr, [4 x ptr] }

; Function Attrs: cold nounwind optsize uwtable
define void @ff_sbrdsp_init_fixed(ptr noundef %0) #0 {
  %2 = alloca ptr, align 8
  store ptr %0, ptr %2, align 8, !tbaa !4
  %3 = load ptr, ptr %2, align 8, !tbaa !4
  %4 = getelementptr inbounds nuw %struct.SBRDSPContext, ptr %3, i32 0, i32 0
  store ptr @sbr_sum64x5_c, ptr %4, align 8, !tbaa !9
  %5 = load ptr, ptr %2, align 8, !tbaa !4
  %6 = getelementptr inbounds nuw %struct.SBRDSPContext, ptr %5, i32 0, i32 1
  store ptr @sbr_sum_square_c, ptr %6, align 8, !tbaa !11
  %7 = load ptr, ptr %2, align 8, !tbaa !4
  %8 = getelementptr inbounds nuw %struct.SBRDSPContext, ptr %7, i32 0, i32 2
  store ptr @sbr_neg_odd_64_c, ptr %8, align 8, !tbaa !12
  %9 = load ptr, ptr %2, align 8, !tbaa !4
  %10 = getelementptr inbounds nuw %struct.SBRDSPContext, ptr %9, i32 0, i32 3
  store ptr @sbr_qmf_pre_shuffle_c, ptr %10, align 8, !tbaa !13
  %11 = load ptr, ptr %2, align 8, !tbaa !4
  %12 = getelementptr inbounds nuw %struct.SBRDSPContext, ptr %11, i32 0, i32 4
  store ptr @sbr_qmf_post_shuffle_c, ptr %12, align 8, !tbaa !14
  %13 = load ptr, ptr %2, align 8, !tbaa !4
  %14 = getelementptr inbounds nuw %struct.SBRDSPContext, ptr %13, i32 0, i32 5
  store ptr @sbr_qmf_deint_neg_c, ptr %14, align 8, !tbaa !15
  %15 = load ptr, ptr %2, align 8, !tbaa !4
  %16 = getelementptr inbounds nuw %struct.SBRDSPContext, ptr %15, i32 0, i32 6
  store ptr @sbr_qmf_deint_bfly_c, ptr %16, align 8, !tbaa !16
  %17 = load ptr, ptr %2, align 8, !tbaa !4
  %18 = getelementptr inbounds nuw %struct.SBRDSPContext, ptr %17, i32 0, i32 7
  store ptr @sbr_autocorrelate_c, ptr %18, align 8, !tbaa !17
  %19 = load ptr, ptr %2, align 8, !tbaa !4
  %20 = getelementptr inbounds nuw %struct.SBRDSPContext, ptr %19, i32 0, i32 8
  store ptr @sbr_hf_gen_c, ptr %20, align 8, !tbaa !18
  %21 = load ptr, ptr %2, align 8, !tbaa !4
  %22 = getelementptr inbounds nuw %struct.SBRDSPContext, ptr %21, i32 0, i32 9
  store ptr @sbr_hf_g_filt_c, ptr %22, align 8, !tbaa !19
  %23 = load ptr, ptr %2, align 8, !tbaa !4
  %24 = getelementptr inbounds nuw %struct.SBRDSPContext, ptr %23, i32 0, i32 10
  %25 = getelementptr inbounds [4 x ptr], ptr %24, i64 0, i64 0
  store ptr @sbr_hf_apply_noise_0, ptr %25, align 8, !tbaa !20
  %26 = load ptr, ptr %2, align 8, !tbaa !4
  %27 = getelementptr inbounds nuw %struct.SBRDSPContext, ptr %26, i32 0, i32 10
  %28 = getelementptr inbounds [4 x ptr], ptr %27, i64 0, i64 1
  store ptr @sbr_hf_apply_noise_1, ptr %28, align 8, !tbaa !20
  %29 = load ptr, ptr %2, align 8, !tbaa !4
  %30 = getelementptr inbounds nuw %struct.SBRDSPContext, ptr %29, i32 0, i32 10
  %31 = getelementptr inbounds [4 x ptr], ptr %30, i64 0, i64 2
  store ptr @sbr_hf_apply_noise_2, ptr %31, align 8, !tbaa !20
  %32 = load ptr, ptr %2, align 8, !tbaa !4
  %33 = getelementptr inbounds nuw %struct.SBRDSPContext, ptr %32, i32 0, i32 10
  %34 = getelementptr inbounds [4 x ptr], ptr %33, i64 0, i64 3
  store ptr @sbr_hf_apply_noise_3, ptr %34, align 8, !tbaa !20
  ret void
}